EXPORTS
	ASCIIToUnicode
	?AboutDlgProc@@YGHPAUHWND__@@IIJ@Z
	Activate_Cmd
	AddCommas@4
	AddQuotes
	AddToHistory
	AddVariableToList
	AddWildcardIfDirectory
	?AdjustTTYCaret@@YAXXZ
	AliasList
	Alias_Cmd
	AllocMem
	AnsiString
	AsciiToDouble
	Assoc_Cmd
	Attrib_Cmd
	BDebugger_Cmd
	BatComp_Cmd
	Battext_Cmd
	Beep_Cmd
	BreakHandler
	?BreakOut@@YAXH@Z
	Break_Cmd
	Breakpoint_Cmd
	CPUUsage
	CallHtmlHelp
	CallRexxSubroutine
	Call_Cmd
	Cancel_Cmd
	Case_Cmd
	Cd_Cmd
	Cdd_Cmd
	CenterWindow
	ChangeDirectory
	Chcp_Cmd
	?ClearEditLine@@YGXPA_W@Z
	?ClearTTY@@YAXXZ
	Cls_Cmd
	Cmds_Cmd
	ColorPrintf
	Color_Cmd
	Command
	CompareFiles
	CompareStrings
	?ConsoleBreakHandler@@YAHK@Z
	CopyDescriptions
	CopyFilename
	CopyFromClipboard
	CopyTextToClipboard
	CopyToClipboard
	Copy_Cmd
	CrLf@0
	CreateLink
	?CutEgets@@YAXXZ
	DDE_Cmd
	Date_Cmd
	DebugString_Cmd
	?DefaultINI@@YAXXZ
	?DefineStrings@@YGXXZ
	Del_Cmd
	?DelayLoadDllExceptionFilter@@YGJPAU_EXCEPTION_POINTERS@@@Z
	Delay_Cmd
	?DescribeDlg@@YAXXZ
	Describe_Cmd
	DestroyFolder
	Detach_Cmd
	DirHistory_Cmd
	Dir_Cmd
	Dirs_Cmd
	?DisableInternalCommand@@YAHPA_W@Z
	?DisplayPluginNames@@YGHPA_W@Z
	DoPropertySheet
	?DoRunUpdater@@YGXPA_W@Z
	Do_Cmd
	DrawHline_Cmd
	DrawVline_Cmd
	Drawbox_Cmd
	EatKeystrokes
	EchoErr_Cmd
	Echo_Cmd
	EchosErr_Cmd
	Echos_Cmd
	EjectMedia_Cmd
	EnableSignals
	?EnableWow64FsRedirection@@YGXH@Z
	EndOfList
	Endlocal_Cmd
	?EnumWProc@@YGHPAUHWND__@@J@Z
	?EnvironmentList@@YAPAUHWND__@@I@Z
	ErrorMsgBox
	EscapeLine
	Eset_Cmd
	Evaluate
	Eventlog_Cmd
	Except_Cmd
	?Executables@@3PAPA_WA
	Exit_Cmd
	ExpandAliases
	?ExpandFunctionsInFileName@@YGHPA_W0@Z
	ExpandVariables
	ExtensionPart
	External
	ExtractFileSummary
	?FFindDlgProc@@YGHPAUHWND__@@IIJ@Z
	Ffind_Cmd
	FilenamePart
	FindProcess
	FmtMsgBox
	For_Cmd
	FormatDate
	FreeMem
	?FreeToolBar@@YAXXZ
	Free_Cmd
	Ftype_Cmd
	?FunctionList@@YAPAUHWND__@@I@Z
	Function_Cmd
	FuzzyFindWindow
	GetAbsCursorPosition
	GetAbsScrRows
	GetAlias
	GetAttribute
	?GetCharFromBIOS@@YGHXZ
	?GetCharFromConsole@@YGHXZ
	GetClipboardLine
	GetColors
	GetCursorPosition
	GetCursorRange
	GetDriveTypeEx
	GetExeType
	GetFileLine
	GetFuzzyDir
	GetKeystroke
	GetLine
	GetLongName
	GetMountPoint
	GetMousePosition
	GetParentPID
	GetParentProcessName
	GetRandom
	GetRowOffset
	GetScrCols
	GetScrRows
	GetShortName
	GetSymlink
	GetTempDirectory
	GetToken
	GetVariableList
	GetWOW64
	Global_Cmd
	Gosub_Cmd
	GotoURL
	Goto_Cmd
	HashFile
	Head_Cmd
	Help_Cmd
	HideCaretTTY
	History_Cmd
	HoldSignals
	IFTP_Cmd
	IPAddress
	IPName
	If_Cmd
	Iff_Cmd
	?IniClear@@YAXPAUINIFILE@@@Z
	?IniLine@@YAHPA_WPAUINIFILE@@HHPAPA_W@Z
	?IniParse@@YAHPA_WPAUINIFILE@@I@Z
	?InitAFS@@YAHXZ
	?InitColors@@YAXXZ
	?InitFont@@YAXXZ
	?InitStatBar@@YAXXZ
	?InitToolBar@@YAHHPA_W@Z
	?InitializeGlobalVariables@@YGXXZ
	?InitializeIniFile@@YAXXZ
	?InitializeREXX@@YAHXZ
	?InitializeTTY@@YAHXZ
	Inkey_Cmd
	Input_Cmd
	InsertPathInFilename
	IsAFSServerInstalled
	IsAFSServiceRunning
	IsMountPoint
	IsPathInAFS
	IsSymlink
	Jabber_Cmd
	Keybd_Cmd
	Keys_Cmd
	Keystack_Cmd
	?LCS@@YAPA_WPA_W0@Z
	LastArgument
	?ListBoxProc@@YAJIIJ@Z
	?ListCopyToClipboard@@YAHXZ
	?ListSaveFile@@YAXXZ
	?ListVScroll@@YAHPAUHWND__@@IJ@Z
	List_Cmd
	LoadAllPlugins
	LoadOnePlugin
	Loadbtm_Cmd
	Log_Cmd
	MakeDirectoryName
	MakeFolder
	MakeFullName
	MakeVLFN
	MakeWildcardName
	Md_Cmd
	Memory_Cmd
	?Mklink_Cmd@@YGHPA_W@Z
	Mklnk_Cmd
	MouseCursorOff
	MouseCursorOn
	Msgbox_Cmd
	Mv_Cmd
	MyFindExecutable
	?NTInternalHelp@@YAHPA_W@Z
	NetworkClock
	NextArgument
	NextHistoryEntry
	NextListEntry
	NthArgument
	OSD_Cmd
	OffOn
	On_Cmd
	Option_Cmd
	?OurDdeInitiate@@YAXXZ
	PDir_Cmd
	ParseColors
	PathLength
	PathPart
	Path_Cmd
	PauseKeys
	Pause_Cmd
	Perl
	PerlArgvLine
	PerlString
	PingPing
	Playavi_Cmd
	Playsound_Cmd
	Plugin_Cmd
	Popd_Cmd
	?PositionWindowW@@YAXXZ
	PostMsg_Cmd
	PreviousHistoryEntry
	?PrintBuffer@@YAXPAUHWND__@@H@Z
	Print_Cmd
	Printf
	Priority_Cmd
	?ProcessINI@@YAHPA_W@Z
	ProcessRexxFile
	PromptAliases
	Prompt_Cmd
	Pushd_Cmd
	QPutc
	QPuts@4
	Qprintf
	QueryAFSDiskInfo
	QueryAFSMountPath
	?QueryCloseAllWindows@@YAHXZ
	QueryCodePage
	?QueryCountryInfo@@YAXXZ
	QueryCurrentDate
	QueryCurrentDirectory
	QueryCurrentDrive
	QueryCurrentTime
	?QueryDirectoryTree@@YGHPA_WH@Z
	?QueryDiskInfo@@YAHPA_WPAUQDISKINFO@@H@Z
	QueryDiskLabel
	QueryDriveExists
	QueryDriveReady
	QueryDriveRemote
	QueryDriveRemovable
	?QueryEnvironmentVariable@@YGHPA_W@Z
	QueryFileOwner
	QueryFileSize
	QueryIFSType
	QueryInputChar
	?QueryInternalCommandFlags@@YAHPA_W@Z
	QueryIsANSI
	QueryIsCDROM
	QueryIsCON
	QueryIsConsole
	?QueryIsDelimiter@@YAH_W@Z
	QueryIsDevice
	QueryIsDirectory
	QueryIsFTPDirectory
	QueryIsFile
	QueryIsFileOrDirectory
	QueryIsFileUnicode
	QueryIsGUI
	QueryIsJunction
	QueryIsLFN
	QueryIsNetworkDrive
	QueryIsNumeric
	?QueryIsPipeHandle@@YAHPAX@Z
	QueryIsPluginCommand
	QueryIsPluginFeature
	?QueryIsSymbolicLink@@YGHPA_WH@Z
	QueryIsTTY
	QueryIsURL
	QueryIsVMWare
	QueryIsVirtualPC
	?QueryIsWhiteSpace@@YAH_W@Z
	QueryKeyWaiting
	QueryMemSize
	QueryMouseClickWaiting
	?QueryNTFSInfo@@YAEHPAUQDISKINFO@@@Z
	?QueryOSVersion@@YAXPAU_OSVERSIONINFOW@@@Z
	QueryOptionValue@8
	QueryPluginInfo
	?QueryPluginPathname@@YGPA_WPA_W@Z
	QueryTrueName
	QueryUnicodeOutput
	QueryVolumeInfo
	Querybox_Cmd
	QuitSendKeys
	Quit_Cmd
	Rd_Cmd
	?ReadBCP@@YGHPA_W0@Z
	ReadCellStr
	ReadDescriptions
	ReallocMem
	Reboot_Cmd
	Recycle_Cmd
	?RegisterDebuggerClass@@YAHXZ
	RegularExpression
	?RegularExpressionSearch@@YGHPA_WH@Z
	Remark_Cmd
	Ren_Cmd
	?ResetConsoleSTDOUT@@YAXXZ
	?ResetEGets@@YAXHH@Z
	?ResetTTYScreen@@YAXXZ
	ResolveLink
	?RestoreFromTray@@YAXXZ
	?RestoreVDMDirectory@@YAXXZ
	Ret_Cmd
	Rexec_Cmd
	Rmlnk_Cmd
	Rshell_Cmd
	Ruby
	?RubyFunction@@YGHPA_W0@Z
	RubyString
	?RunDlgProc@@YGHPAUHWND__@@IIJ@Z
	RunKeystrokePlugin
	RunPlugin
	RunStartupFiles
	SMPP_Cmd
	SNMP_Cmd
	SNPP_Cmd
	?SaveIniData@@YAXXZ
	?SaveTTYBuffer@@YAXPAUHWND__@@@Z
	Scr_Cmd
	?ScriptHost@@YGHPA_W0H@Z
	Script_Cmd
	Scroll
	Scrput_Cmd
	SearchPaths
	SelectFolder
	?SelectLBProc@@YAHIIJ@Z
	Select_Cmd
	SendKeys
	SendMail_Cmd
	SetAbsCursorPosition
	SetCodePage
	SetColors
	SetCursorPosition
	SetCursorSize
	?SetDriveString@@YAXPA_W@Z
	SetEVariable
	?SetInternalCommandFlags@@YAHPA_WH@Z
	SetLineColor
	SetMousePosition
	SetScrColor
	SetSessionTitle
	SetTransparency
	Set_Cmd
	Setdos_Cmd
	Setlocal_Cmd
	Shift_Cmd
	Shortcut_Cmd
	ShowCaretTTY
	?ShowPrompt@@YAXXZ
	Shralias_Cmd
	?ShutdownCommandProcessor@@YAXXZ
	?Similar@@YAHPA_W0@Z
	?SizeTTY@@YAXII@Z
	?SkipWhiteSpace@@YAPA_WPA_W@Z
	Sprintf
	Sscanf
	Start_Cmd
	?StatbarWndProc@@YGJPAUHWND__@@IIJ@Z
	?StatusBarUpdate@@YAXXZ
	StripEnclosingQuotes
	?StripLeadingCharacters@@YAXPA_W0@Z
	?StripQuotes@@YAXPA_W@Z
	?StripTrailingCharacters@@YAXPA_W0@Z
	StuffKeyboard
	Switch_Cmd
	Sync_Cmd
	SysBeep
	SysWait
	TCToolbar_Cmd
	?TTYData@@3UTTY_WNDDATA@@A
	TTYScreenWrite
	Tail_Cmd
	Taskend_Cmd
	Tasklist_Cmd
	Tee_Cmd
	Time_Cmd
	Timer_Cmd
	Title_Cmd
	?ToolbarDlgProc@@YGHPAUHWND__@@IIJ@Z
	?ToolbarWndProc@@YGJPAUHWND__@@IIJ@Z
	Touch_Cmd
	Transient_Cmd
	Tree_Cmd
	?TrimCharacters@@YAXPA_W0@Z
	Truename_Cmd
	Type_Cmd
	Unalias_Cmd
	Unfunction_Cmd
	UnicodeToASCII
	UniqueFileName
	UnloadAllPlugins
	UnloadOnePlugin
	Unset_Cmd
	UpdateFrameProfile
	?UpdateTCMDFromCaveman@@YAHXZ
	UpdateTitleAndIcon
	?UpdaterOptions@@YGHPAUHWND__@@@Z
	VScrput_Cmd
	Ver_Cmd
	Verify_Cmd
	Volume_Cmd
	WMIQuery_Cmd
	WhichCell
	WhichVolume
	Which_Cmd
	WildcardComparison
	?WinKeyHandler@@YAJIIJ@Z
	WindowToClipboard
	Window_Cmd
	WorkstationCell
	?WriteBCP@@YGHPA_W0@Z
	WriteCellStr
	WriteChrAtt
	WriteDescriptions
	WritePrivateProfileInt
	WriteStrAtt
	WriteTTY
	WriteVStrAtt
	?WrongOS@@YAXXZ
	?XMLPath@@YGHPA_W00@Z
	Y_Cmd
	?_ctoupper@@YAHH@Z
	?aColors@@3PAUANSI_COLORS@@A
	?aGlobals@@3UGLOBAL_VARIABLES@@A
	?aIniFile@@3UINIFILE@@A
	egets
	error@8
	?gVM@@3U_VM_DATA@@A
	honk
	?is_signed_digit@@YAHH@Z
	?isdigit@@YAH_W@Z
	?isxdigit@@YAH_W@Z
	?nextline@@YAPA_WPA_WH@Z
	?prevline@@YAPA_WPA_WPAH@Z
	?scan@@YAPA_WPA_W00@Z
	?strend@@YAPA_WPA_W@Z
	strins
	stristr
	strlast
	?tty_hscroll@@YAHPAUHWND__@@IJ@Z
	tty_resetbusy
	tty_setbusy
	?tty_vscroll@@YAHPAUHWND__@@IJ@Z
	tty_yield
	?wcmemset@@YAXPA_W_WH@Z
	wwriteXP
